; Function Attrs: mustprogress nounwind uwtable
define dso_local void @_ZN28b3HashedOverlappingPairCacheD2Ev(ptr noundef nonnull align 8 captures(none) dereferenceable(112) initializes((0, 8)) %0) unnamed_addr #2 align 2 personality ptr @__gxx_personality_v0 {
  store ptr getelementptr inbounds nuw inrange(-16, 128) (i8, ptr @_ZTV28b3HashedOverlappingPairCache, i64 16), ptr %0, align 8, !tbaa !4
  %2 = getelementptr inbounds nuw i8, ptr %0, i64 96
  %3 = load ptr, ptr %2, align 8, !tbaa !26
  %.not.i.i.i = icmp eq ptr %3, null
  br i1 %.not.i.i.i, label %_ZN20b3AlignedObjectArrayIiED2Ev.exit, label %4

4:                                                ; preds = %1
  %5 = getelementptr inbounds nuw i8, ptr %0, i64 104
  %6 = load i8, ptr %5, align 8, !tbaa !25, !range !33, !noundef !34
  %7 = trunc nuw i8 %6 to i1
  br i1 %7, label %8, label %_ZN20b3AlignedObjectArrayIiED2Ev.exit

8:                                                ; preds = %4
  invoke void @_Z21b3AlignedFreeInternalPv(ptr noundef nonnull %3)
          to label %_ZN20b3AlignedObjectArrayIiED2Ev.exit unwind label %9

9:                                                ; preds = %8
  %10 = landingpad { ptr, i32 }
          catch ptr null
  %11 = extractvalue { ptr, i32 } %10, 0
  tail call void @__clang_call_terminate(ptr %11) #15
  unreachable

_ZN20b3AlignedObjectArrayIiED2Ev.exit:            ; preds = %1, %4, %8
  %12 = getelementptr inbounds nuw i8, ptr %0, i64 84
  %13 = getelementptr inbounds nuw i8, ptr %0, i64 104
  store i8 1, ptr %13, align 8, !tbaa !25
  store ptr null, ptr %2, align 8, !tbaa !26
  store i32 0, ptr %12, align 4, !tbaa !27
  %14 = getelementptr inbounds nuw i8, ptr %0, i64 88
  store i32 0, ptr %14, align 8, !tbaa !28
  %15 = getelementptr inbounds nuw i8, ptr %0, i64 64
  %16 = load ptr, ptr %15, align 8, !tbaa !26
  %.not.i.i.i1 = icmp eq ptr %16, null
  br i1 %.not.i.i.i1, label %_ZN20b3AlignedObjectArrayIiED2Ev.exit2, label %17

17:                                               ; preds = %_ZN20b3AlignedObjectArrayIiED2Ev.exit
  %18 = getelementptr inbounds nuw i8, ptr %0, i64 72
  %19 = load i8, ptr %18, align 8, !tbaa !25, !range !33, !noundef !34
  %20 = trunc nuw i8 %19 to i1
  br i1 %20, label %21, label %_ZN20b3AlignedObjectArrayIiED2Ev.exit2

21:                                               ; preds = %17
  invoke void @_Z21b3AlignedFreeInternalPv(ptr noundef nonnull %16)
          to label %_ZN20b3AlignedObjectArrayIiED2Ev.exit2 unwind label %22

22:                                               ; preds = %21
  %23 = landingpad { ptr, i32 }
          catch ptr null
  %24 = extractvalue { ptr, i32 } %23, 0
  tail call void @__clang_call_terminate(ptr %24) #15
  unreachable

_ZN20b3AlignedObjectArrayIiED2Ev.exit2:           ; preds = %_ZN20b3AlignedObjectArrayIiED2Ev.exit, %17, %21
  %25 = getelementptr inbounds nuw i8, ptr %0, i64 52
  %26 = getelementptr inbounds nuw i8, ptr %0, i64 72
  store i8 1, ptr %26, align 8, !tbaa !25
  store ptr null, ptr %15, align 8, !tbaa !26
  store i32 0, ptr %25, align 4, !tbaa !27
  %27 = getelementptr inbounds nuw i8, ptr %0, i64 56
  store i32 0, ptr %27, align 8, !tbaa !28
  %28 = getelementptr inbounds nuw i8, ptr %0, i64 24
  %29 = load ptr, ptr %28, align 8, !tbaa !15
  %.not.i.i.i3 = icmp eq ptr %29, null
  br i1 %.not.i.i.i3, label %_ZN20b3AlignedObjectArrayI6b3Int4ED2Ev.exit, label %30

30:                                               ; preds = %_ZN20b3AlignedObjectArrayIiED2Ev.exit2
  %31 = getelementptr inbounds nuw i8, ptr %0, i64 32
  %32 = load i8, ptr %31, align 8, !tbaa !7, !range !33, !noundef !34
  %33 = trunc nuw i8 %32 to i1
  br i1 %33, label %34, label %_ZN20b3AlignedObjectArrayI6b3Int4ED2Ev.exit

34:                                               ; preds = %30
  invoke void @_Z21b3AlignedFreeInternalPv(ptr noundef nonnull %29)
          to label %_ZN20b3AlignedObjectArrayI6b3Int4ED2Ev.exit unwind label %35

35:                                               ; preds = %34
  %36 = landingpad { ptr, i32 }
          catch ptr null
  %37 = extractvalue { ptr, i32 } %36, 0
  tail call void @__clang_call_terminate(ptr %37) #15
  unreachable

_ZN20b3AlignedObjectArrayI6b3Int4ED2Ev.exit:      ; preds = %_ZN20b3AlignedObjectArrayIiED2Ev.exit2, %30, %34
  %38 = getelementptr inbounds nuw i8, ptr %0, i64 12
  %39 = getelementptr inbounds nuw i8, ptr %0, i64 32
  store i8 1, ptr %39, align 8, !tbaa !7
  store ptr null, ptr %28, align 8, !tbaa !15
  store i32 0, ptr %38, align 4, !tbaa !16
  %40 = getelementptr inbounds nuw i8, ptr %0, i64 16
  store i32 0, ptr %40, align 8, !tbaa !17
  ret void
}